
main.elf：     文件格式 elf32-littlearm


Disassembly of section .text:

87800000 <_start>:
87800000:	e59ff138 	ldr	pc, [pc, #312]	; 87800140 <FIQ_Handler+0x8>
87800004:	e59ff138 	ldr	pc, [pc, #312]	; 87800144 <FIQ_Handler+0xc>
87800008:	e59ff138 	ldr	pc, [pc, #312]	; 87800148 <FIQ_Handler+0x10>
8780000c:	e59ff138 	ldr	pc, [pc, #312]	; 8780014c <FIQ_Handler+0x14>
87800010:	e59ff138 	ldr	pc, [pc, #312]	; 87800150 <FIQ_Handler+0x18>
87800014:	e59ff138 	ldr	pc, [pc, #312]	; 87800154 <FIQ_Handler+0x1c>
87800018:	e59ff138 	ldr	pc, [pc, #312]	; 87800158 <FIQ_Handler+0x20>
8780001c:	e59ff138 	ldr	pc, [pc, #312]	; 8780015c <FIQ_Handler+0x24>

87800020 <Reset_Handler>:
87800020:	f10c0080 	cpsid	i
87800024:	ee110f10 	mrc	15, 0, r0, cr1, cr0, {0}
87800028:	e3c00a01 	bic	r0, r0, #4096	; 0x1000
8780002c:	e3c00b02 	bic	r0, r0, #2048	; 0x800
87800030:	e3c00004 	bic	r0, r0, #4
87800034:	e3c00002 	bic	r0, r0, #2
87800038:	e3c00001 	bic	r0, r0, #1
8780003c:	ee010f10 	mcr	15, 0, r0, cr1, cr0, {0}
87800040:	e59f0118 	ldr	r0, [pc, #280]	; 87800160 <FIQ_Handler+0x28>
87800044:	f57ff04f 	dsb	sy
87800048:	f57ff06f 	isb	sy
8780004c:	ee0c0f10 	mcr	15, 0, r0, cr12, cr0, {0}
87800050:	f57ff04f 	dsb	sy
87800054:	f57ff06f 	isb	sy

87800058 <_bss_start>:
87800058:	87800d44 	strhi	r0, [r0, r4, asr #26]

8780005c <_bss_end>:
8780005c:	8780124c 	strhi	r1, [r0, ip, asr #4]
87800060:	e51f0010 	ldr	r0, [pc, #-16]	; 87800058 <_bss_start>
87800064:	e51f1010 	ldr	r1, [pc, #-16]	; 8780005c <_bss_end>
87800068:	e3a02000 	mov	r2, #0

8780006c <bss_loop>:
8780006c:	e8a00004 	stmia	r0!, {r2}
87800070:	e1500001 	cmp	r0, r1
87800074:	dafffffc 	ble	8780006c <bss_loop>
87800078:	e10f0000 	mrs	r0, CPSR
8780007c:	e3c0001f 	bic	r0, r0, #31
87800080:	e3800012 	orr	r0, r0, #18
87800084:	e129f000 	msr	CPSR_fc, r0
87800088:	e59fd0d4 	ldr	sp, [pc, #212]	; 87800164 <FIQ_Handler+0x2c>
8780008c:	e10f0000 	mrs	r0, CPSR
87800090:	e3c0001f 	bic	r0, r0, #31
87800094:	e380001f 	orr	r0, r0, #31
87800098:	e129f000 	msr	CPSR_fc, r0
8780009c:	e59fd0c4 	ldr	sp, [pc, #196]	; 87800168 <FIQ_Handler+0x30>
878000a0:	e10f0000 	mrs	r0, CPSR
878000a4:	e3c0001f 	bic	r0, r0, #31
878000a8:	e3800013 	orr	r0, r0, #19
878000ac:	e129f000 	msr	CPSR_fc, r0
878000b0:	e59fd0b4 	ldr	sp, [pc, #180]	; 8780016c <FIQ_Handler+0x34>
878000b4:	f1080080 	cpsie	i
878000b8:	ea00031e 	b	87800d38 <__main_from_arm>

878000bc <Undefined_Handler>:
878000bc:	e59f0080 	ldr	r0, [pc, #128]	; 87800144 <FIQ_Handler+0xc>
878000c0:	e12fff10 	bx	r0

878000c4 <SVC_Handler>:
878000c4:	e59f007c 	ldr	r0, [pc, #124]	; 87800148 <FIQ_Handler+0x10>
878000c8:	e12fff10 	bx	r0

878000cc <PreAbort_Handler>:
878000cc:	e59f0078 	ldr	r0, [pc, #120]	; 8780014c <FIQ_Handler+0x14>
878000d0:	e12fff10 	bx	r0

878000d4 <DataAbort_Handler>:
878000d4:	e59f0074 	ldr	r0, [pc, #116]	; 87800150 <FIQ_Handler+0x18>
878000d8:	e12fff10 	bx	r0

878000dc <NotUsed_Handler>:
878000dc:	e51f0008 	ldr	r0, [pc, #-8]	; 878000dc <NotUsed_Handler>
878000e0:	e12fff10 	bx	r0

878000e4 <IRQ_Handler>:
878000e4:	e52de004 	push	{lr}		; (str lr, [sp, #-4]!)
878000e8:	e92d100f 	push	{r0, r1, r2, r3, ip}
878000ec:	e14f0000 	mrs	r0, SPSR
878000f0:	e52d0004 	push	{r0}		; (str r0, [sp, #-4]!)
878000f4:	ee9f1f10 	mrc	15, 4, r1, cr15, cr0, {0}
878000f8:	e2811a02 	add	r1, r1, #8192	; 0x2000
878000fc:	e591000c 	ldr	r0, [r1, #12]
87800100:	e92d0003 	push	{r0, r1}
87800104:	f1020013 	cps	#19
87800108:	e52de004 	push	{lr}		; (str lr, [sp, #-4]!)
8780010c:	e59f205c 	ldr	r2, [pc, #92]	; 87800170 <FIQ_Handler+0x38>
87800110:	e12fff32 	blx	r2
87800114:	e49de004 	pop	{lr}		; (ldr lr, [sp], #4)
87800118:	f1020012 	cps	#18
8780011c:	e8bd0003 	pop	{r0, r1}
87800120:	e5810010 	str	r0, [r1, #16]
87800124:	e49d0004 	pop	{r0}		; (ldr r0, [sp], #4)
87800128:	e16ff000 	msr	SPSR_fsxc, r0
8780012c:	e8bd100f 	pop	{r0, r1, r2, r3, ip}
87800130:	e49de004 	pop	{lr}		; (ldr lr, [sp], #4)
87800134:	e25ef004 	subs	pc, lr, #4

87800138 <FIQ_Handler>:
87800138:	e59f001c 	ldr	r0, [pc, #28]	; 8780015c <FIQ_Handler+0x24>
8780013c:	e12fff10 	bx	r0
87800140:	87800020 	strhi	r0, [r0, r0, lsr #32]
87800144:	878000bc 			; <UNDEFINED> instruction: 0x878000bc
87800148:	878000c4 	strhi	r0, [r0, r4, asr #1]
8780014c:	878000cc 	strhi	r0, [r0, ip, asr #1]
87800150:	878000d4 			; <UNDEFINED> instruction: 0x878000d4
87800154:	878000dc 			; <UNDEFINED> instruction: 0x878000dc
87800158:	878000e4 	strhi	r0, [r0, r4, ror #1]
8780015c:	87800138 			; <UNDEFINED> instruction: 0x87800138
87800160:	87800000 	strhi	r0, [r0, r0]
87800164:	80600000 	rsbhi	r0, r0, r0
87800168:	80400000 	subhi	r0, r0, r0
8780016c:	80200000 	eorhi	r0, r0, r0
87800170:	87800add 			; <UNDEFINED> instruction: 0x87800add
87800174:	00001e41 	andeq	r1, r0, r1, asr #28
87800178:	61656100 	cmnvs	r5, r0, lsl #2
8780017c:	01006962 	tsteq	r0, r2, ror #18
87800180:	00000014 	andeq	r0, r0, r4, lsl r0
87800184:	412d3705 	teqmi	sp, r5, lsl #14
87800188:	070a0600 	streq	r0, [sl, -r0, lsl #12]
8780018c:	09010841 	stmdbeq	r1, {r0, r6, fp}
87800190:	00040a02 	andeq	r0, r4, r2, lsl #20

87800194 <clk_enable>:
87800194:	b480      	push	{r7}
87800196:	af00      	add	r7, sp, #0
87800198:	f44f 4380 	mov.w	r3, #16384	; 0x4000
8780019c:	f2c0 230c 	movt	r3, #524	; 0x20c
878001a0:	f04f 32ff 	mov.w	r2, #4294967295	; 0xffffffff
878001a4:	669a      	str	r2, [r3, #104]	; 0x68
878001a6:	f44f 4380 	mov.w	r3, #16384	; 0x4000
878001aa:	f2c0 230c 	movt	r3, #524	; 0x20c
878001ae:	f04f 32ff 	mov.w	r2, #4294967295	; 0xffffffff
878001b2:	66da      	str	r2, [r3, #108]	; 0x6c
878001b4:	f44f 4380 	mov.w	r3, #16384	; 0x4000
878001b8:	f2c0 230c 	movt	r3, #524	; 0x20c
878001bc:	f04f 32ff 	mov.w	r2, #4294967295	; 0xffffffff
878001c0:	671a      	str	r2, [r3, #112]	; 0x70
878001c2:	f44f 4380 	mov.w	r3, #16384	; 0x4000
878001c6:	f2c0 230c 	movt	r3, #524	; 0x20c
878001ca:	f04f 32ff 	mov.w	r2, #4294967295	; 0xffffffff
878001ce:	675a      	str	r2, [r3, #116]	; 0x74
878001d0:	f44f 4380 	mov.w	r3, #16384	; 0x4000
878001d4:	f2c0 230c 	movt	r3, #524	; 0x20c
878001d8:	f04f 32ff 	mov.w	r2, #4294967295	; 0xffffffff
878001dc:	679a      	str	r2, [r3, #120]	; 0x78
878001de:	f44f 4380 	mov.w	r3, #16384	; 0x4000
878001e2:	f2c0 230c 	movt	r3, #524	; 0x20c
878001e6:	f04f 32ff 	mov.w	r2, #4294967295	; 0xffffffff
878001ea:	67da      	str	r2, [r3, #124]	; 0x7c
878001ec:	f44f 4380 	mov.w	r3, #16384	; 0x4000
878001f0:	f2c0 230c 	movt	r3, #524	; 0x20c
878001f4:	f04f 32ff 	mov.w	r2, #4294967295	; 0xffffffff
878001f8:	f8c3 2080 	str.w	r2, [r3, #128]	; 0x80
878001fc:	46bd      	mov	sp, r7
878001fe:	f85d 7b04 	ldr.w	r7, [sp], #4
87800202:	4770      	bx	lr

87800204 <ARM_clk_init>:
87800204:	b480      	push	{r7}
87800206:	b083      	sub	sp, #12
87800208:	af00      	add	r7, sp, #0
8780020a:	f44f 4380 	mov.w	r3, #16384	; 0x4000
8780020e:	f2c0 230c 	movt	r3, #524	; 0x20c
87800212:	68db      	ldr	r3, [r3, #12]
87800214:	089b      	lsrs	r3, r3, #2
87800216:	f003 0301 	and.w	r3, r3, #1
8780021a:	2b00      	cmp	r3, #0
8780021c:	d117      	bne.n	8780024e <ARM_clk_init+0x4a>
8780021e:	f44f 4380 	mov.w	r3, #16384	; 0x4000
87800222:	f2c0 230c 	movt	r3, #524	; 0x20c
87800226:	f44f 4280 	mov.w	r2, #16384	; 0x4000
8780022a:	f2c0 220c 	movt	r2, #524	; 0x20c
8780022e:	68d2      	ldr	r2, [r2, #12]
87800230:	f422 7280 	bic.w	r2, r2, #256	; 0x100
87800234:	60da      	str	r2, [r3, #12]
87800236:	f44f 4380 	mov.w	r3, #16384	; 0x4000
8780023a:	f2c0 230c 	movt	r3, #524	; 0x20c
8780023e:	f44f 4280 	mov.w	r2, #16384	; 0x4000
87800242:	f2c0 220c 	movt	r2, #524	; 0x20c
87800246:	68d2      	ldr	r2, [r2, #12]
87800248:	f042 0204 	orr.w	r2, r2, #4
8780024c:	60da      	str	r2, [r3, #12]
8780024e:	f44f 4300 	mov.w	r3, #32768	; 0x8000
87800252:	f2c0 230c 	movt	r3, #524	; 0x20c
87800256:	f44f 4200 	mov.w	r2, #32768	; 0x8000
8780025a:	f2c0 220c 	movt	r2, #524	; 0x20c
8780025e:	6812      	ldr	r2, [r2, #0]
87800260:	f022 027f 	bic.w	r2, r2, #127	; 0x7f
87800264:	601a      	str	r2, [r3, #0]
87800266:	f44f 4200 	mov.w	r2, #32768	; 0x8000
8780026a:	f2c0 220c 	movt	r2, #524	; 0x20c
8780026e:	f44f 4300 	mov.w	r3, #32768	; 0x8000
87800272:	f2c0 230c 	movt	r3, #524	; 0x20c
87800276:	681b      	ldr	r3, [r3, #0]
87800278:	f443 5301 	orr.w	r3, r3, #8256	; 0x2040
8780027c:	f043 0311 	orr.w	r3, r3, #17
87800280:	6013      	str	r3, [r2, #0]
87800282:	f44f 4380 	mov.w	r3, #16384	; 0x4000
87800286:	f2c0 230c 	movt	r3, #524	; 0x20c
8780028a:	f44f 4280 	mov.w	r2, #16384	; 0x4000
8780028e:	f2c0 220c 	movt	r2, #524	; 0x20c
87800292:	68d2      	ldr	r2, [r2, #12]
87800294:	f022 0204 	bic.w	r2, r2, #4
87800298:	60da      	str	r2, [r3, #12]
8780029a:	f44f 4380 	mov.w	r3, #16384	; 0x4000
8780029e:	f2c0 230c 	movt	r3, #524	; 0x20c
878002a2:	2200      	movs	r2, #0
878002a4:	611a      	str	r2, [r3, #16]
878002a6:	2300      	movs	r3, #0
878002a8:	607b      	str	r3, [r7, #4]
878002aa:	f44f 4300 	mov.w	r3, #32768	; 0x8000
878002ae:	f2c0 230c 	movt	r3, #524	; 0x20c
878002b2:	f8d3 3100 	ldr.w	r3, [r3, #256]	; 0x100
878002b6:	607b      	str	r3, [r7, #4]
878002b8:	687b      	ldr	r3, [r7, #4]
878002ba:	f003 33c0 	and.w	r3, r3, #3233857728	; 0xc0c0c0c0
878002be:	607b      	str	r3, [r7, #4]
878002c0:	687b      	ldr	r3, [r7, #4]
878002c2:	f043 031b 	orr.w	r3, r3, #27
878002c6:	607b      	str	r3, [r7, #4]
878002c8:	687b      	ldr	r3, [r7, #4]
878002ca:	f443 5380 	orr.w	r3, r3, #4096	; 0x1000
878002ce:	607b      	str	r3, [r7, #4]
878002d0:	687b      	ldr	r3, [r7, #4]
878002d2:	f443 13c0 	orr.w	r3, r3, #1572864	; 0x180000
878002d6:	607b      	str	r3, [r7, #4]
878002d8:	687b      	ldr	r3, [r7, #4]
878002da:	f043 5300 	orr.w	r3, r3, #536870912	; 0x20000000
878002de:	607b      	str	r3, [r7, #4]
878002e0:	f44f 4300 	mov.w	r3, #32768	; 0x8000
878002e4:	f2c0 230c 	movt	r3, #524	; 0x20c
878002e8:	687a      	ldr	r2, [r7, #4]
878002ea:	f8c3 2100 	str.w	r2, [r3, #256]	; 0x100
878002ee:	f44f 4300 	mov.w	r3, #32768	; 0x8000
878002f2:	f2c0 230c 	movt	r3, #524	; 0x20c
878002f6:	f8d3 30f0 	ldr.w	r3, [r3, #240]	; 0xf0
878002fa:	607b      	str	r3, [r7, #4]
878002fc:	687b      	ldr	r3, [r7, #4]
878002fe:	f003 33c0 	and.w	r3, r3, #3233857728	; 0xc0c0c0c0
87800302:	607b      	str	r3, [r7, #4]
87800304:	687b      	ldr	r3, [r7, #4]
87800306:	f043 030c 	orr.w	r3, r3, #12
8780030a:	607b      	str	r3, [r7, #4]
8780030c:	687b      	ldr	r3, [r7, #4]
8780030e:	f443 5380 	orr.w	r3, r3, #4096	; 0x1000
87800312:	607b      	str	r3, [r7, #4]
87800314:	687b      	ldr	r3, [r7, #4]
87800316:	f443 1388 	orr.w	r3, r3, #1114112	; 0x110000
8780031a:	607b      	str	r3, [r7, #4]
8780031c:	687b      	ldr	r3, [r7, #4]
8780031e:	f043 5398 	orr.w	r3, r3, #318767104	; 0x13000000
87800322:	607b      	str	r3, [r7, #4]
87800324:	f44f 4300 	mov.w	r3, #32768	; 0x8000
87800328:	f2c0 230c 	movt	r3, #524	; 0x20c
8780032c:	687a      	ldr	r2, [r7, #4]
8780032e:	f8c3 20f0 	str.w	r2, [r3, #240]	; 0xf0
87800332:	f44f 4380 	mov.w	r3, #16384	; 0x4000
87800336:	f2c0 230c 	movt	r3, #524	; 0x20c
8780033a:	f44f 4280 	mov.w	r2, #16384	; 0x4000
8780033e:	f2c0 220c 	movt	r2, #524	; 0x20c
87800342:	6992      	ldr	r2, [r2, #24]
87800344:	f422 2240 	bic.w	r2, r2, #786432	; 0xc0000
87800348:	619a      	str	r2, [r3, #24]
8780034a:	f44f 4380 	mov.w	r3, #16384	; 0x4000
8780034e:	f2c0 230c 	movt	r3, #524	; 0x20c
87800352:	f44f 4280 	mov.w	r2, #16384	; 0x4000
87800356:	f2c0 220c 	movt	r2, #524	; 0x20c
8780035a:	6992      	ldr	r2, [r2, #24]
8780035c:	f442 2280 	orr.w	r2, r2, #262144	; 0x40000
87800360:	619a      	str	r2, [r3, #24]
87800362:	f44f 4380 	mov.w	r3, #16384	; 0x4000
87800366:	f2c0 230c 	movt	r3, #524	; 0x20c
8780036a:	f44f 4280 	mov.w	r2, #16384	; 0x4000
8780036e:	f2c0 220c 	movt	r2, #524	; 0x20c
87800372:	6952      	ldr	r2, [r2, #20]
87800374:	f422 52e0 	bic.w	r2, r2, #7168	; 0x1c00
87800378:	615a      	str	r2, [r3, #20]
8780037a:	bf00      	nop
8780037c:	f44f 4380 	mov.w	r3, #16384	; 0x4000
87800380:	f2c0 230c 	movt	r3, #524	; 0x20c
87800384:	6c9b      	ldr	r3, [r3, #72]	; 0x48
87800386:	f003 0302 	and.w	r3, r3, #2
8780038a:	2b00      	cmp	r3, #0
8780038c:	d1f6      	bne.n	8780037c <ARM_clk_init+0x178>
8780038e:	f44f 4380 	mov.w	r3, #16384	; 0x4000
87800392:	f2c0 230c 	movt	r3, #524	; 0x20c
87800396:	f44f 4280 	mov.w	r2, #16384	; 0x4000
8780039a:	f2c0 220c 	movt	r2, #524	; 0x20c
8780039e:	6952      	ldr	r2, [r2, #20]
878003a0:	f442 6200 	orr.w	r2, r2, #2048	; 0x800
878003a4:	615a      	str	r2, [r3, #20]
878003a6:	bf00      	nop
878003a8:	f44f 4380 	mov.w	r3, #16384	; 0x4000
878003ac:	f2c0 230c 	movt	r3, #524	; 0x20c
878003b0:	6c9b      	ldr	r3, [r3, #72]	; 0x48
878003b2:	f003 0302 	and.w	r3, r3, #2
878003b6:	2b00      	cmp	r3, #0
878003b8:	d1f6      	bne.n	878003a8 <ARM_clk_init+0x1a4>
878003ba:	f44f 4380 	mov.w	r3, #16384	; 0x4000
878003be:	f2c0 230c 	movt	r3, #524	; 0x20c
878003c2:	f44f 4280 	mov.w	r2, #16384	; 0x4000
878003c6:	f2c0 220c 	movt	r2, #524	; 0x20c
878003ca:	6952      	ldr	r2, [r2, #20]
878003cc:	f022 7200 	bic.w	r2, r2, #33554432	; 0x2000000
878003d0:	615a      	str	r2, [r3, #20]
878003d2:	bf00      	nop
878003d4:	f44f 4380 	mov.w	r3, #16384	; 0x4000
878003d8:	f2c0 230c 	movt	r3, #524	; 0x20c
878003dc:	6c9b      	ldr	r3, [r3, #72]	; 0x48
878003de:	f003 0320 	and.w	r3, r3, #32
878003e2:	2b00      	cmp	r3, #0
878003e4:	d1f6      	bne.n	878003d4 <ARM_clk_init+0x1d0>
878003e6:	f44f 4380 	mov.w	r3, #16384	; 0x4000
878003ea:	f2c0 230c 	movt	r3, #524	; 0x20c
878003ee:	f44f 4280 	mov.w	r2, #16384	; 0x4000
878003f2:	f2c0 220c 	movt	r2, #524	; 0x20c
878003f6:	6952      	ldr	r2, [r2, #20]
878003f8:	f422 7240 	bic.w	r2, r2, #768	; 0x300
878003fc:	615a      	str	r2, [r3, #20]
878003fe:	f44f 4380 	mov.w	r3, #16384	; 0x4000
87800402:	f2c0 230c 	movt	r3, #524	; 0x20c
87800406:	f44f 4280 	mov.w	r2, #16384	; 0x4000
8780040a:	f2c0 220c 	movt	r2, #524	; 0x20c
8780040e:	6952      	ldr	r2, [r2, #20]
87800410:	f442 7280 	orr.w	r2, r2, #256	; 0x100
87800414:	615a      	str	r2, [r3, #20]
87800416:	f44f 4380 	mov.w	r3, #16384	; 0x4000
8780041a:	f2c0 230c 	movt	r3, #524	; 0x20c
8780041e:	f44f 4280 	mov.w	r2, #16384	; 0x4000
87800422:	f2c0 220c 	movt	r2, #524	; 0x20c
87800426:	69d2      	ldr	r2, [r2, #28]
87800428:	f022 0240 	bic.w	r2, r2, #64	; 0x40
8780042c:	61da      	str	r2, [r3, #28]
8780042e:	f44f 4380 	mov.w	r3, #16384	; 0x4000
87800432:	f2c0 230c 	movt	r3, #524	; 0x20c
87800436:	f44f 4280 	mov.w	r2, #16384	; 0x4000
8780043a:	f2c0 220c 	movt	r2, #524	; 0x20c
8780043e:	69d2      	ldr	r2, [r2, #28]
87800440:	f022 023f 	bic.w	r2, r2, #63	; 0x3f
87800444:	61da      	str	r2, [r3, #28]
87800446:	370c      	adds	r7, #12
87800448:	46bd      	mov	sp, r7
8780044a:	f85d 7b04 	ldr.w	r7, [sp], #4
8780044e:	4770      	bx	lr

87800450 <delay_short>:
87800450:	b480      	push	{r7}
87800452:	b083      	sub	sp, #12
87800454:	af00      	add	r7, sp, #0
87800456:	6078      	str	r0, [r7, #4]
87800458:	bf00      	nop
8780045a:	687b      	ldr	r3, [r7, #4]
8780045c:	1e5a      	subs	r2, r3, #1
8780045e:	607a      	str	r2, [r7, #4]
87800460:	2b00      	cmp	r3, #0
87800462:	d1fa      	bne.n	8780045a <delay_short+0xa>
87800464:	370c      	adds	r7, #12
87800466:	46bd      	mov	sp, r7
87800468:	f85d 7b04 	ldr.w	r7, [sp], #4
8780046c:	4770      	bx	lr
8780046e:	bf00      	nop

87800470 <delay>:
87800470:	b580      	push	{r7, lr}
87800472:	b082      	sub	sp, #8
87800474:	af00      	add	r7, sp, #0
87800476:	6078      	str	r0, [r7, #4]
87800478:	e003      	b.n	87800482 <delay+0x12>
8780047a:	f240 70ff 	movw	r0, #2047	; 0x7ff
8780047e:	f7ff ffe7 	bl	87800450 <delay_short>
87800482:	687b      	ldr	r3, [r7, #4]
87800484:	1e5a      	subs	r2, r3, #1
87800486:	607a      	str	r2, [r7, #4]
87800488:	2b00      	cmp	r3, #0
8780048a:	d1f6      	bne.n	8780047a <delay+0xa>
8780048c:	3708      	adds	r7, #8
8780048e:	46bd      	mov	sp, r7
87800490:	bd80      	pop	{r7, pc}
87800492:	bf00      	nop

87800494 <EPIT_Init>:
87800494:	b580      	push	{r7, lr}
87800496:	b086      	sub	sp, #24
87800498:	af00      	add	r7, sp, #0
8780049a:	6078      	str	r0, [r7, #4]
8780049c:	6039      	str	r1, [r7, #0]
8780049e:	687b      	ldr	r3, [r7, #4]
878004a0:	f643 72ff 	movw	r2, #16383	; 0x3fff
878004a4:	4293      	cmp	r3, r2
878004a6:	bf28      	it	cs
878004a8:	4613      	movcs	r3, r2
878004aa:	607b      	str	r3, [r7, #4]
878004ac:	2200      	movs	r2, #0
878004ae:	f2c0 220d 	movt	r2, #525	; 0x20d
878004b2:	2300      	movs	r3, #0
878004b4:	f2c0 230d 	movt	r3, #525	; 0x20d
878004b8:	6819      	ldr	r1, [r3, #0]
878004ba:	687b      	ldr	r3, [r7, #4]
878004bc:	011b      	lsls	r3, r3, #4
878004be:	430b      	orrs	r3, r1
878004c0:	f043 7380 	orr.w	r3, r3, #16777216	; 0x1000000
878004c4:	f043 030e 	orr.w	r3, r3, #14
878004c8:	6013      	str	r3, [r2, #0]
878004ca:	2300      	movs	r3, #0
878004cc:	f2c0 230d 	movt	r3, #525	; 0x20d
878004d0:	683a      	ldr	r2, [r7, #0]
878004d2:	609a      	str	r2, [r3, #8]
878004d4:	2300      	movs	r3, #0
878004d6:	f2c0 230d 	movt	r3, #525	; 0x20d
878004da:	2200      	movs	r2, #0
878004dc:	60da      	str	r2, [r3, #12]
878004de:	2200      	movs	r2, #0
878004e0:	f240 6139 	movw	r1, #1593	; 0x639
878004e4:	f2c8 7180 	movt	r1, #34688	; 0x8780
878004e8:	2058      	movs	r0, #88	; 0x58
878004ea:	f000 fa9b 	bl	87800a24 <system_register_irqhandler>
878004ee:	2358      	movs	r3, #88	; 0x58
878004f0:	617b      	str	r3, [r7, #20]
878004f2:	ee9f 3f10 	mrc	15, 4, r3, cr15, cr0, {0}
878004f6:	613b      	str	r3, [r7, #16]
878004f8:	693b      	ldr	r3, [r7, #16]
878004fa:	0c1b      	lsrs	r3, r3, #16
878004fc:	041b      	lsls	r3, r3, #16
878004fe:	60fb      	str	r3, [r7, #12]
87800500:	697b      	ldr	r3, [r7, #20]
87800502:	095a      	lsrs	r2, r3, #5
87800504:	697b      	ldr	r3, [r7, #20]
87800506:	f003 031f 	and.w	r3, r3, #31
8780050a:	2101      	movs	r1, #1
8780050c:	4099      	lsls	r1, r3
8780050e:	68fb      	ldr	r3, [r7, #12]
87800510:	f502 6288 	add.w	r2, r2, #1088	; 0x440
87800514:	f843 1022 	str.w	r1, [r3, r2, lsl #2]
87800518:	3718      	adds	r7, #24
8780051a:	46bd      	mov	sp, r7
8780051c:	bd80      	pop	{r7, pc}
8780051e:	bf00      	nop

87800520 <EPIT_ClearITFlag>:
87800520:	b480      	push	{r7}
87800522:	af00      	add	r7, sp, #0
87800524:	2300      	movs	r3, #0
87800526:	f2c0 230d 	movt	r3, #525	; 0x20d
8780052a:	2200      	movs	r2, #0
8780052c:	f2c0 220d 	movt	r2, #525	; 0x20d
87800530:	6852      	ldr	r2, [r2, #4]
87800532:	f042 0201 	orr.w	r2, r2, #1
87800536:	605a      	str	r2, [r3, #4]
87800538:	46bd      	mov	sp, r7
8780053a:	f85d 7b04 	ldr.w	r7, [sp], #4
8780053e:	4770      	bx	lr

87800540 <EPIT_Cmd>:
87800540:	b480      	push	{r7}
87800542:	b083      	sub	sp, #12
87800544:	af00      	add	r7, sp, #0
87800546:	6078      	str	r0, [r7, #4]
87800548:	687b      	ldr	r3, [r7, #4]
8780054a:	2b00      	cmp	r3, #0
8780054c:	d00a      	beq.n	87800564 <EPIT_Cmd+0x24>
8780054e:	2300      	movs	r3, #0
87800550:	f2c0 230d 	movt	r3, #525	; 0x20d
87800554:	2200      	movs	r2, #0
87800556:	f2c0 220d 	movt	r2, #525	; 0x20d
8780055a:	6812      	ldr	r2, [r2, #0]
8780055c:	f042 0201 	orr.w	r2, r2, #1
87800560:	601a      	str	r2, [r3, #0]
87800562:	e009      	b.n	87800578 <EPIT_Cmd+0x38>
87800564:	2300      	movs	r3, #0
87800566:	f2c0 230d 	movt	r3, #525	; 0x20d
8780056a:	2200      	movs	r2, #0
8780056c:	f2c0 220d 	movt	r2, #525	; 0x20d
87800570:	6812      	ldr	r2, [r2, #0]
87800572:	f022 0201 	bic.w	r2, r2, #1
87800576:	601a      	str	r2, [r3, #0]
87800578:	370c      	adds	r7, #12
8780057a:	46bd      	mov	sp, r7
8780057c:	f85d 7b04 	ldr.w	r7, [sp], #4
87800580:	4770      	bx	lr
87800582:	bf00      	nop

87800584 <EXTI_Init>:
87800584:	b580      	push	{r7, lr}
87800586:	b084      	sub	sp, #16
87800588:	af00      	add	r7, sp, #0
8780058a:	2363      	movs	r3, #99	; 0x63
8780058c:	60fb      	str	r3, [r7, #12]
8780058e:	ee9f 3f10 	mrc	15, 4, r3, cr15, cr0, {0}
87800592:	60bb      	str	r3, [r7, #8]
87800594:	68bb      	ldr	r3, [r7, #8]
87800596:	0c1b      	lsrs	r3, r3, #16
87800598:	041b      	lsls	r3, r3, #16
8780059a:	607b      	str	r3, [r7, #4]
8780059c:	68fb      	ldr	r3, [r7, #12]
8780059e:	095a      	lsrs	r2, r3, #5
878005a0:	68fb      	ldr	r3, [r7, #12]
878005a2:	f003 031f 	and.w	r3, r3, #31
878005a6:	2101      	movs	r1, #1
878005a8:	4099      	lsls	r1, r3
878005aa:	687b      	ldr	r3, [r7, #4]
878005ac:	f502 6288 	add.w	r2, r2, #1088	; 0x440
878005b0:	f843 1022 	str.w	r1, [r3, r2, lsl #2]
878005b4:	2200      	movs	r2, #0
878005b6:	f240 51fd 	movw	r1, #1533	; 0x5fd
878005ba:	f2c8 7180 	movt	r1, #34688	; 0x8780
878005be:	2063      	movs	r0, #99	; 0x63
878005c0:	f000 fa30 	bl	87800a24 <system_register_irqhandler>
878005c4:	2205      	movs	r2, #5
878005c6:	f44f 2180 	mov.w	r1, #262144	; 0x40000
878005ca:	f44f 4040 	mov.w	r0, #49152	; 0xc000
878005ce:	f2c0 2009 	movt	r0, #521	; 0x209
878005d2:	f000 f969 	bl	878008a8 <GPIO_IT_Config>
878005d6:	f04f 31ff 	mov.w	r1, #4294967295	; 0xffffffff
878005da:	f44f 4040 	mov.w	r0, #49152	; 0xc000
878005de:	f2c0 2009 	movt	r0, #521	; 0x209
878005e2:	f000 f93b 	bl	8780085c <GPIO_ClearITFlag>
878005e6:	f44f 2180 	mov.w	r1, #262144	; 0x40000
878005ea:	f44f 4040 	mov.w	r0, #49152	; 0xc000
878005ee:	f2c0 2009 	movt	r0, #521	; 0x209
878005f2:	f000 f911 	bl	87800818 <GPIO_IT_Enable>
878005f6:	3710      	adds	r7, #16
878005f8:	46bd      	mov	sp, r7
878005fa:	bd80      	pop	{r7, pc}

878005fc <GPIO1_Combined_16_31_IRQn_Handler>:
878005fc:	b580      	push	{r7, lr}
878005fe:	b084      	sub	sp, #16
87800600:	af00      	add	r7, sp, #0
87800602:	6078      	str	r0, [r7, #4]
87800604:	6039      	str	r1, [r7, #0]
87800606:	f44f 4340 	mov.w	r3, #49152	; 0xc000
8780060a:	f2c0 2309 	movt	r3, #521	; 0x209
8780060e:	699b      	ldr	r3, [r3, #24]
87800610:	60fb      	str	r3, [r7, #12]
87800612:	68fb      	ldr	r3, [r7, #12]
87800614:	f403 2380 	and.w	r3, r3, #262144	; 0x40000
87800618:	2b00      	cmp	r3, #0
8780061a:	d00a      	beq.n	87800632 <GPIO1_Combined_16_31_IRQn_Handler+0x36>
8780061c:	2001      	movs	r0, #1
8780061e:	f7ff ff8f 	bl	87800540 <EPIT_Cmd>
87800622:	f44f 2180 	mov.w	r1, #262144	; 0x40000
87800626:	f44f 4040 	mov.w	r0, #49152	; 0xc000
8780062a:	f2c0 2009 	movt	r0, #521	; 0x209
8780062e:	f000 f915 	bl	8780085c <GPIO_ClearITFlag>
87800632:	3710      	adds	r7, #16
87800634:	46bd      	mov	sp, r7
87800636:	bd80      	pop	{r7, pc}

87800638 <EPIT1_IRQn_Handler>:
87800638:	b580      	push	{r7, lr}
8780063a:	b082      	sub	sp, #8
8780063c:	af00      	add	r7, sp, #0
8780063e:	6078      	str	r0, [r7, #4]
87800640:	6039      	str	r1, [r7, #0]
87800642:	2300      	movs	r3, #0
87800644:	f2c0 230d 	movt	r3, #525	; 0x20d
87800648:	685b      	ldr	r3, [r3, #4]
8780064a:	2b00      	cmp	r3, #0
8780064c:	d011      	beq.n	87800672 <EPIT1_IRQn_Handler+0x3a>
8780064e:	2000      	movs	r0, #0
87800650:	f7ff ff76 	bl	87800540 <EPIT_Cmd>
87800654:	f44f 2180 	mov.w	r1, #262144	; 0x40000
87800658:	f44f 4040 	mov.w	r0, #49152	; 0xc000
8780065c:	f2c0 2009 	movt	r0, #521	; 0x209
87800660:	f000 f8ba 	bl	878007d8 <GPIO_ReadBit>
87800664:	4603      	mov	r3, r0
87800666:	2b00      	cmp	r3, #0
87800668:	d101      	bne.n	8780066e <EPIT1_IRQn_Handler+0x36>
8780066a:	f000 fb39 	bl	87800ce0 <led_flip>
8780066e:	f7ff ff57 	bl	87800520 <EPIT_ClearITFlag>
87800672:	3708      	adds	r7, #8
87800674:	46bd      	mov	sp, r7
87800676:	bd80      	pop	{r7, pc}

87800678 <IOMUXC_SetPinMux>:
87800678:	b480      	push	{r7}
8780067a:	b085      	sub	sp, #20
8780067c:	af00      	add	r7, sp, #0
8780067e:	60f8      	str	r0, [r7, #12]
87800680:	60b9      	str	r1, [r7, #8]
87800682:	607a      	str	r2, [r7, #4]
87800684:	603b      	str	r3, [r7, #0]
87800686:	68fb      	ldr	r3, [r7, #12]
87800688:	68ba      	ldr	r2, [r7, #8]
8780068a:	f002 010f 	and.w	r1, r2, #15
8780068e:	69fa      	ldr	r2, [r7, #28]
87800690:	0112      	lsls	r2, r2, #4
87800692:	f002 0210 	and.w	r2, r2, #16
87800696:	430a      	orrs	r2, r1
87800698:	601a      	str	r2, [r3, #0]
8780069a:	687b      	ldr	r3, [r7, #4]
8780069c:	2b00      	cmp	r3, #0
8780069e:	d004      	beq.n	878006aa <IOMUXC_SetPinMux+0x32>
878006a0:	687b      	ldr	r3, [r7, #4]
878006a2:	683a      	ldr	r2, [r7, #0]
878006a4:	f002 0207 	and.w	r2, r2, #7
878006a8:	601a      	str	r2, [r3, #0]
878006aa:	3714      	adds	r7, #20
878006ac:	46bd      	mov	sp, r7
878006ae:	f85d 7b04 	ldr.w	r7, [sp], #4
878006b2:	4770      	bx	lr

878006b4 <IOMUXC_SetPinConfig>:
878006b4:	b480      	push	{r7}
878006b6:	b085      	sub	sp, #20
878006b8:	af00      	add	r7, sp, #0
878006ba:	60f8      	str	r0, [r7, #12]
878006bc:	60b9      	str	r1, [r7, #8]
878006be:	607a      	str	r2, [r7, #4]
878006c0:	603b      	str	r3, [r7, #0]
878006c2:	69bb      	ldr	r3, [r7, #24]
878006c4:	2b00      	cmp	r3, #0
878006c6:	d002      	beq.n	878006ce <IOMUXC_SetPinConfig+0x1a>
878006c8:	69bb      	ldr	r3, [r7, #24]
878006ca:	69fa      	ldr	r2, [r7, #28]
878006cc:	601a      	str	r2, [r3, #0]
878006ce:	3714      	adds	r7, #20
878006d0:	46bd      	mov	sp, r7
878006d2:	f85d 7b04 	ldr.w	r7, [sp], #4
878006d6:	4770      	bx	lr

878006d8 <GPIO_Init>:
878006d8:	b580      	push	{r7, lr}
878006da:	b088      	sub	sp, #32
878006dc:	af02      	add	r7, sp, #8
878006de:	60f8      	str	r0, [r7, #12]
878006e0:	60b9      	str	r1, [r7, #8]
878006e2:	607a      	str	r2, [r7, #4]
878006e4:	603b      	str	r3, [r7, #0]
878006e6:	2300      	movs	r3, #0
878006e8:	617b      	str	r3, [r7, #20]
878006ea:	6a7b      	ldr	r3, [r7, #36]	; 0x24
878006ec:	685b      	ldr	r3, [r3, #4]
878006ee:	041b      	lsls	r3, r3, #16
878006f0:	697a      	ldr	r2, [r7, #20]
878006f2:	4313      	orrs	r3, r2
878006f4:	617b      	str	r3, [r7, #20]
878006f6:	6a7b      	ldr	r3, [r7, #36]	; 0x24
878006f8:	689b      	ldr	r3, [r3, #8]
878006fa:	039b      	lsls	r3, r3, #14
878006fc:	697a      	ldr	r2, [r7, #20]
878006fe:	4313      	orrs	r3, r2
87800700:	617b      	str	r3, [r7, #20]
87800702:	6a7b      	ldr	r3, [r7, #36]	; 0x24
87800704:	68db      	ldr	r3, [r3, #12]
87800706:	035b      	lsls	r3, r3, #13
87800708:	697a      	ldr	r2, [r7, #20]
8780070a:	4313      	orrs	r3, r2
8780070c:	617b      	str	r3, [r7, #20]
8780070e:	6a7b      	ldr	r3, [r7, #36]	; 0x24
87800710:	691b      	ldr	r3, [r3, #16]
87800712:	031b      	lsls	r3, r3, #12
87800714:	697a      	ldr	r2, [r7, #20]
87800716:	4313      	orrs	r3, r2
87800718:	617b      	str	r3, [r7, #20]
8780071a:	6a7b      	ldr	r3, [r7, #36]	; 0x24
8780071c:	695b      	ldr	r3, [r3, #20]
8780071e:	02db      	lsls	r3, r3, #11
87800720:	697a      	ldr	r2, [r7, #20]
87800722:	4313      	orrs	r3, r2
87800724:	617b      	str	r3, [r7, #20]
87800726:	6a7b      	ldr	r3, [r7, #36]	; 0x24
87800728:	699b      	ldr	r3, [r3, #24]
8780072a:	019b      	lsls	r3, r3, #6
8780072c:	697a      	ldr	r2, [r7, #20]
8780072e:	4313      	orrs	r3, r2
87800730:	617b      	str	r3, [r7, #20]
87800732:	6a7b      	ldr	r3, [r7, #36]	; 0x24
87800734:	69db      	ldr	r3, [r3, #28]
87800736:	00db      	lsls	r3, r3, #3
87800738:	697a      	ldr	r2, [r7, #20]
8780073a:	4313      	orrs	r3, r2
8780073c:	617b      	str	r3, [r7, #20]
8780073e:	6a7b      	ldr	r3, [r7, #36]	; 0x24
87800740:	6a1b      	ldr	r3, [r3, #32]
87800742:	697a      	ldr	r2, [r7, #20]
87800744:	4313      	orrs	r3, r2
87800746:	617b      	str	r3, [r7, #20]
87800748:	6a7b      	ldr	r3, [r7, #36]	; 0x24
8780074a:	681b      	ldr	r3, [r3, #0]
8780074c:	9301      	str	r3, [sp, #4]
8780074e:	6a3b      	ldr	r3, [r7, #32]
87800750:	9300      	str	r3, [sp, #0]
87800752:	683b      	ldr	r3, [r7, #0]
87800754:	687a      	ldr	r2, [r7, #4]
87800756:	68b9      	ldr	r1, [r7, #8]
87800758:	68f8      	ldr	r0, [r7, #12]
8780075a:	f7ff ff8d 	bl	87800678 <IOMUXC_SetPinMux>
8780075e:	697b      	ldr	r3, [r7, #20]
87800760:	9301      	str	r3, [sp, #4]
87800762:	6a3b      	ldr	r3, [r7, #32]
87800764:	9300      	str	r3, [sp, #0]
87800766:	683b      	ldr	r3, [r7, #0]
87800768:	687a      	ldr	r2, [r7, #4]
8780076a:	68b9      	ldr	r1, [r7, #8]
8780076c:	68f8      	ldr	r0, [r7, #12]
8780076e:	f7ff ffa1 	bl	878006b4 <IOMUXC_SetPinConfig>
87800772:	3718      	adds	r7, #24
87800774:	46bd      	mov	sp, r7
87800776:	bd80      	pop	{r7, pc}

87800778 <GPIO_SetBit>:
87800778:	b480      	push	{r7}
8780077a:	b085      	sub	sp, #20
8780077c:	af00      	add	r7, sp, #0
8780077e:	60f8      	str	r0, [r7, #12]
87800780:	60b9      	str	r1, [r7, #8]
87800782:	607a      	str	r2, [r7, #4]
87800784:	687b      	ldr	r3, [r7, #4]
87800786:	2b00      	cmp	r3, #0
87800788:	d009      	beq.n	8780079e <GPIO_SetBit+0x26>
8780078a:	68fb      	ldr	r3, [r7, #12]
8780078c:	681b      	ldr	r3, [r3, #0]
8780078e:	68ba      	ldr	r2, [r7, #8]
87800790:	2101      	movs	r1, #1
87800792:	fa01 f202 	lsl.w	r2, r1, r2
87800796:	431a      	orrs	r2, r3
87800798:	68fb      	ldr	r3, [r7, #12]
8780079a:	601a      	str	r2, [r3, #0]
8780079c:	e009      	b.n	878007b2 <GPIO_SetBit+0x3a>
8780079e:	68fb      	ldr	r3, [r7, #12]
878007a0:	681b      	ldr	r3, [r3, #0]
878007a2:	68ba      	ldr	r2, [r7, #8]
878007a4:	2101      	movs	r1, #1
878007a6:	fa01 f202 	lsl.w	r2, r1, r2
878007aa:	43d2      	mvns	r2, r2
878007ac:	401a      	ands	r2, r3
878007ae:	68fb      	ldr	r3, [r7, #12]
878007b0:	601a      	str	r2, [r3, #0]
878007b2:	3714      	adds	r7, #20
878007b4:	46bd      	mov	sp, r7
878007b6:	f85d 7b04 	ldr.w	r7, [sp], #4
878007ba:	4770      	bx	lr

878007bc <GPIO_SetBits>:
878007bc:	b480      	push	{r7}
878007be:	b083      	sub	sp, #12
878007c0:	af00      	add	r7, sp, #0
878007c2:	6078      	str	r0, [r7, #4]
878007c4:	6039      	str	r1, [r7, #0]
878007c6:	687b      	ldr	r3, [r7, #4]
878007c8:	683a      	ldr	r2, [r7, #0]
878007ca:	601a      	str	r2, [r3, #0]
878007cc:	370c      	adds	r7, #12
878007ce:	46bd      	mov	sp, r7
878007d0:	f85d 7b04 	ldr.w	r7, [sp], #4
878007d4:	4770      	bx	lr
878007d6:	bf00      	nop

878007d8 <GPIO_ReadBit>:
878007d8:	b480      	push	{r7}
878007da:	b083      	sub	sp, #12
878007dc:	af00      	add	r7, sp, #0
878007de:	6078      	str	r0, [r7, #4]
878007e0:	6039      	str	r1, [r7, #0]
878007e2:	687b      	ldr	r3, [r7, #4]
878007e4:	689a      	ldr	r2, [r3, #8]
878007e6:	683b      	ldr	r3, [r7, #0]
878007e8:	4013      	ands	r3, r2
878007ea:	2b00      	cmp	r3, #0
878007ec:	bf14      	ite	ne
878007ee:	2301      	movne	r3, #1
878007f0:	2300      	moveq	r3, #0
878007f2:	b2db      	uxtb	r3, r3
878007f4:	4618      	mov	r0, r3
878007f6:	370c      	adds	r7, #12
878007f8:	46bd      	mov	sp, r7
878007fa:	f85d 7b04 	ldr.w	r7, [sp], #4
878007fe:	4770      	bx	lr

87800800 <GPIO_ReadBits>:
87800800:	b480      	push	{r7}
87800802:	b083      	sub	sp, #12
87800804:	af00      	add	r7, sp, #0
87800806:	6078      	str	r0, [r7, #4]
87800808:	687b      	ldr	r3, [r7, #4]
8780080a:	689b      	ldr	r3, [r3, #8]
8780080c:	4618      	mov	r0, r3
8780080e:	370c      	adds	r7, #12
87800810:	46bd      	mov	sp, r7
87800812:	f85d 7b04 	ldr.w	r7, [sp], #4
87800816:	4770      	bx	lr

87800818 <GPIO_IT_Enable>:
87800818:	b480      	push	{r7}
8780081a:	b083      	sub	sp, #12
8780081c:	af00      	add	r7, sp, #0
8780081e:	6078      	str	r0, [r7, #4]
87800820:	6039      	str	r1, [r7, #0]
87800822:	687b      	ldr	r3, [r7, #4]
87800824:	695a      	ldr	r2, [r3, #20]
87800826:	683b      	ldr	r3, [r7, #0]
87800828:	431a      	orrs	r2, r3
8780082a:	687b      	ldr	r3, [r7, #4]
8780082c:	615a      	str	r2, [r3, #20]
8780082e:	370c      	adds	r7, #12
87800830:	46bd      	mov	sp, r7
87800832:	f85d 7b04 	ldr.w	r7, [sp], #4
87800836:	4770      	bx	lr

87800838 <GPIO_IT_Disable>:
87800838:	b480      	push	{r7}
8780083a:	b083      	sub	sp, #12
8780083c:	af00      	add	r7, sp, #0
8780083e:	6078      	str	r0, [r7, #4]
87800840:	6039      	str	r1, [r7, #0]
87800842:	687b      	ldr	r3, [r7, #4]
87800844:	695a      	ldr	r2, [r3, #20]
87800846:	683b      	ldr	r3, [r7, #0]
87800848:	43db      	mvns	r3, r3
8780084a:	401a      	ands	r2, r3
8780084c:	687b      	ldr	r3, [r7, #4]
8780084e:	615a      	str	r2, [r3, #20]
87800850:	370c      	adds	r7, #12
87800852:	46bd      	mov	sp, r7
87800854:	f85d 7b04 	ldr.w	r7, [sp], #4
87800858:	4770      	bx	lr
8780085a:	bf00      	nop

8780085c <GPIO_ClearITFlag>:
8780085c:	b480      	push	{r7}
8780085e:	b083      	sub	sp, #12
87800860:	af00      	add	r7, sp, #0
87800862:	6078      	str	r0, [r7, #4]
87800864:	6039      	str	r1, [r7, #0]
87800866:	687b      	ldr	r3, [r7, #4]
87800868:	699a      	ldr	r2, [r3, #24]
8780086a:	683b      	ldr	r3, [r7, #0]
8780086c:	431a      	orrs	r2, r3
8780086e:	687b      	ldr	r3, [r7, #4]
87800870:	619a      	str	r2, [r3, #24]
87800872:	370c      	adds	r7, #12
87800874:	46bd      	mov	sp, r7
87800876:	f85d 7b04 	ldr.w	r7, [sp], #4
8780087a:	4770      	bx	lr

8780087c <GPIO_GetITFlag>:
8780087c:	b480      	push	{r7}
8780087e:	b083      	sub	sp, #12
87800880:	af00      	add	r7, sp, #0
87800882:	6078      	str	r0, [r7, #4]
87800884:	6039      	str	r1, [r7, #0]
87800886:	687b      	ldr	r3, [r7, #4]
87800888:	699a      	ldr	r2, [r3, #24]
8780088a:	683b      	ldr	r3, [r7, #0]
8780088c:	2b00      	cmp	r3, #0
8780088e:	d001      	beq.n	87800894 <GPIO_GetITFlag+0x18>
87800890:	2301      	movs	r3, #1
87800892:	e000      	b.n	87800896 <GPIO_GetITFlag+0x1a>
87800894:	2300      	movs	r3, #0
87800896:	4013      	ands	r3, r2
87800898:	687a      	ldr	r2, [r7, #4]
8780089a:	6193      	str	r3, [r2, #24]
8780089c:	4618      	mov	r0, r3
8780089e:	370c      	adds	r7, #12
878008a0:	46bd      	mov	sp, r7
878008a2:	f85d 7b04 	ldr.w	r7, [sp], #4
878008a6:	4770      	bx	lr

878008a8 <GPIO_IT_Config>:
878008a8:	b480      	push	{r7}
878008aa:	b089      	sub	sp, #36	; 0x24
878008ac:	af00      	add	r7, sp, #0
878008ae:	60f8      	str	r0, [r7, #12]
878008b0:	60b9      	str	r1, [r7, #8]
878008b2:	607a      	str	r2, [r7, #4]
878008b4:	2300      	movs	r3, #0
878008b6:	61fb      	str	r3, [r7, #28]
878008b8:	e005      	b.n	878008c6 <GPIO_IT_Config+0x1e>
878008ba:	69fb      	ldr	r3, [r7, #28]
878008bc:	3301      	adds	r3, #1
878008be:	61fb      	str	r3, [r7, #28]
878008c0:	68bb      	ldr	r3, [r7, #8]
878008c2:	085b      	lsrs	r3, r3, #1
878008c4:	60bb      	str	r3, [r7, #8]
878008c6:	68bb      	ldr	r3, [r7, #8]
878008c8:	2b01      	cmp	r3, #1
878008ca:	d1f6      	bne.n	878008ba <GPIO_IT_Config+0x12>
878008cc:	69fb      	ldr	r3, [r7, #28]
878008ce:	61bb      	str	r3, [r7, #24]
878008d0:	69fb      	ldr	r3, [r7, #28]
878008d2:	2b0f      	cmp	r3, #15
878008d4:	d802      	bhi.n	878008dc <GPIO_IT_Config+0x34>
878008d6:	68fb      	ldr	r3, [r7, #12]
878008d8:	330c      	adds	r3, #12
878008da:	e007      	b.n	878008ec <GPIO_IT_Config+0x44>
878008dc:	69bb      	ldr	r3, [r7, #24]
878008de:	f003 030f 	and.w	r3, r3, #15
878008e2:	61bb      	str	r3, [r7, #24]
878008e4:	68fb      	ldr	r3, [r7, #12]
878008e6:	3310      	adds	r3, #16
878008e8:	617b      	str	r3, [r7, #20]
878008ea:	697b      	ldr	r3, [r7, #20]
878008ec:	617b      	str	r3, [r7, #20]
878008ee:	68fb      	ldr	r3, [r7, #12]
878008f0:	69db      	ldr	r3, [r3, #28]
878008f2:	69fa      	ldr	r2, [r7, #28]
878008f4:	2101      	movs	r1, #1
878008f6:	fa01 f202 	lsl.w	r2, r1, r2
878008fa:	43d2      	mvns	r2, r2
878008fc:	401a      	ands	r2, r3
878008fe:	68fb      	ldr	r3, [r7, #12]
87800900:	61da      	str	r2, [r3, #28]
87800902:	69bb      	ldr	r3, [r7, #24]
87800904:	005b      	lsls	r3, r3, #1
87800906:	61bb      	str	r3, [r7, #24]
87800908:	687b      	ldr	r3, [r7, #4]
8780090a:	3b01      	subs	r3, #1
8780090c:	2b03      	cmp	r3, #3
8780090e:	d852      	bhi.n	878009b6 <GPIO_IT_Config+0x10e>
87800910:	a201      	add	r2, pc, #4	; (adr r2, 87800918 <GPIO_IT_Config+0x70>)
87800912:	f852 f023 	ldr.w	pc, [r2, r3, lsl #2]
87800916:	bf00      	nop
87800918:	87800929 	strhi	r0, [r0, r9, lsr #18]
8780091c:	8780093f 			; <UNDEFINED> instruction: 0x8780093f
87800920:	87800967 	strhi	r0, [r0, r7, ror #18]
87800924:	8780098f 	strhi	r0, [r0, pc, lsl #19]
87800928:	697b      	ldr	r3, [r7, #20]
8780092a:	681b      	ldr	r3, [r3, #0]
8780092c:	69ba      	ldr	r2, [r7, #24]
8780092e:	2103      	movs	r1, #3
87800930:	fa01 f202 	lsl.w	r2, r1, r2
87800934:	43d2      	mvns	r2, r2
87800936:	401a      	ands	r2, r3
87800938:	697b      	ldr	r3, [r7, #20]
8780093a:	601a      	str	r2, [r3, #0]
8780093c:	e045      	b.n	878009ca <GPIO_IT_Config+0x122>
8780093e:	697b      	ldr	r3, [r7, #20]
87800940:	681b      	ldr	r3, [r3, #0]
87800942:	69ba      	ldr	r2, [r7, #24]
87800944:	2103      	movs	r1, #3
87800946:	fa01 f202 	lsl.w	r2, r1, r2
8780094a:	43d2      	mvns	r2, r2
8780094c:	401a      	ands	r2, r3
8780094e:	697b      	ldr	r3, [r7, #20]
87800950:	601a      	str	r2, [r3, #0]
87800952:	697b      	ldr	r3, [r7, #20]
87800954:	681b      	ldr	r3, [r3, #0]
87800956:	69ba      	ldr	r2, [r7, #24]
87800958:	2101      	movs	r1, #1
8780095a:	fa01 f202 	lsl.w	r2, r1, r2
8780095e:	431a      	orrs	r2, r3
87800960:	697b      	ldr	r3, [r7, #20]
87800962:	601a      	str	r2, [r3, #0]
87800964:	e031      	b.n	878009ca <GPIO_IT_Config+0x122>
87800966:	697b      	ldr	r3, [r7, #20]
87800968:	681b      	ldr	r3, [r3, #0]
8780096a:	69ba      	ldr	r2, [r7, #24]
8780096c:	2103      	movs	r1, #3
8780096e:	fa01 f202 	lsl.w	r2, r1, r2
87800972:	43d2      	mvns	r2, r2
87800974:	401a      	ands	r2, r3
87800976:	697b      	ldr	r3, [r7, #20]
87800978:	601a      	str	r2, [r3, #0]
8780097a:	697b      	ldr	r3, [r7, #20]
8780097c:	681b      	ldr	r3, [r3, #0]
8780097e:	69ba      	ldr	r2, [r7, #24]
87800980:	2102      	movs	r1, #2
87800982:	fa01 f202 	lsl.w	r2, r1, r2
87800986:	431a      	orrs	r2, r3
87800988:	697b      	ldr	r3, [r7, #20]
8780098a:	601a      	str	r2, [r3, #0]
8780098c:	e01d      	b.n	878009ca <GPIO_IT_Config+0x122>
8780098e:	697b      	ldr	r3, [r7, #20]
87800990:	681b      	ldr	r3, [r3, #0]
87800992:	69ba      	ldr	r2, [r7, #24]
87800994:	2103      	movs	r1, #3
87800996:	fa01 f202 	lsl.w	r2, r1, r2
8780099a:	43d2      	mvns	r2, r2
8780099c:	401a      	ands	r2, r3
8780099e:	697b      	ldr	r3, [r7, #20]
878009a0:	601a      	str	r2, [r3, #0]
878009a2:	697b      	ldr	r3, [r7, #20]
878009a4:	681b      	ldr	r3, [r3, #0]
878009a6:	69ba      	ldr	r2, [r7, #24]
878009a8:	2103      	movs	r1, #3
878009aa:	fa01 f202 	lsl.w	r2, r1, r2
878009ae:	431a      	orrs	r2, r3
878009b0:	697b      	ldr	r3, [r7, #20]
878009b2:	601a      	str	r2, [r3, #0]
878009b4:	e009      	b.n	878009ca <GPIO_IT_Config+0x122>
878009b6:	68fb      	ldr	r3, [r7, #12]
878009b8:	69db      	ldr	r3, [r3, #28]
878009ba:	69fa      	ldr	r2, [r7, #28]
878009bc:	2101      	movs	r1, #1
878009be:	fa01 f202 	lsl.w	r2, r1, r2
878009c2:	431a      	orrs	r2, r3
878009c4:	68fb      	ldr	r3, [r7, #12]
878009c6:	61da      	str	r2, [r3, #28]
878009c8:	bf00      	nop
878009ca:	3724      	adds	r7, #36	; 0x24
878009cc:	46bd      	mov	sp, r7
878009ce:	f85d 7b04 	ldr.w	r7, [sp], #4
878009d2:	4770      	bx	lr

878009d4 <system_irqtable_init>:
878009d4:	b480      	push	{r7}
878009d6:	b083      	sub	sp, #12
878009d8:	af00      	add	r7, sp, #0
878009da:	2300      	movs	r3, #0
878009dc:	607b      	str	r3, [r7, #4]
878009de:	2300      	movs	r3, #0
878009e0:	607b      	str	r3, [r7, #4]
878009e2:	e016      	b.n	87800a12 <system_irqtable_init+0x3e>
878009e4:	f640 5348 	movw	r3, #3400	; 0xd48
878009e8:	f2c8 7380 	movt	r3, #34688	; 0x8780
878009ec:	6879      	ldr	r1, [r7, #4]
878009ee:	f640 324d 	movw	r2, #2893	; 0xb4d
878009f2:	f2c8 7280 	movt	r2, #34688	; 0x8780
878009f6:	f843 2031 	str.w	r2, [r3, r1, lsl #3]
878009fa:	f640 5248 	movw	r2, #3400	; 0xd48
878009fe:	f2c8 7280 	movt	r2, #34688	; 0x8780
87800a02:	687b      	ldr	r3, [r7, #4]
87800a04:	00db      	lsls	r3, r3, #3
87800a06:	4413      	add	r3, r2
87800a08:	2200      	movs	r2, #0
87800a0a:	605a      	str	r2, [r3, #4]
87800a0c:	687b      	ldr	r3, [r7, #4]
87800a0e:	3301      	adds	r3, #1
87800a10:	607b      	str	r3, [r7, #4]
87800a12:	687b      	ldr	r3, [r7, #4]
87800a14:	2b9f      	cmp	r3, #159	; 0x9f
87800a16:	d9e5      	bls.n	878009e4 <system_irqtable_init+0x10>
87800a18:	370c      	adds	r7, #12
87800a1a:	46bd      	mov	sp, r7
87800a1c:	f85d 7b04 	ldr.w	r7, [sp], #4
87800a20:	4770      	bx	lr
87800a22:	bf00      	nop

87800a24 <system_register_irqhandler>:
87800a24:	b480      	push	{r7}
87800a26:	b085      	sub	sp, #20
87800a28:	af00      	add	r7, sp, #0
87800a2a:	60f8      	str	r0, [r7, #12]
87800a2c:	60b9      	str	r1, [r7, #8]
87800a2e:	607a      	str	r2, [r7, #4]
87800a30:	f640 5348 	movw	r3, #3400	; 0xd48
87800a34:	f2c8 7380 	movt	r3, #34688	; 0x8780
87800a38:	68fa      	ldr	r2, [r7, #12]
87800a3a:	68b9      	ldr	r1, [r7, #8]
87800a3c:	f843 1032 	str.w	r1, [r3, r2, lsl #3]
87800a40:	f640 5248 	movw	r2, #3400	; 0xd48
87800a44:	f2c8 7280 	movt	r2, #34688	; 0x8780
87800a48:	68fb      	ldr	r3, [r7, #12]
87800a4a:	00db      	lsls	r3, r3, #3
87800a4c:	4413      	add	r3, r2
87800a4e:	687a      	ldr	r2, [r7, #4]
87800a50:	605a      	str	r2, [r3, #4]
87800a52:	3714      	adds	r7, #20
87800a54:	46bd      	mov	sp, r7
87800a56:	f85d 7b04 	ldr.w	r7, [sp], #4
87800a5a:	4770      	bx	lr

87800a5c <int_Init>:
87800a5c:	b580      	push	{r7, lr}
87800a5e:	b084      	sub	sp, #16
87800a60:	af00      	add	r7, sp, #0
87800a62:	ee9f 3f10 	mrc	15, 4, r3, cr15, cr0, {0}
87800a66:	60fb      	str	r3, [r7, #12]
87800a68:	68fb      	ldr	r3, [r7, #12]
87800a6a:	0c1b      	lsrs	r3, r3, #16
87800a6c:	041b      	lsls	r3, r3, #16
87800a6e:	60bb      	str	r3, [r7, #8]
87800a70:	68bb      	ldr	r3, [r7, #8]
87800a72:	f503 5380 	add.w	r3, r3, #4096	; 0x1000
87800a76:	3304      	adds	r3, #4
87800a78:	681b      	ldr	r3, [r3, #0]
87800a7a:	f003 031f 	and.w	r3, r3, #31
87800a7e:	3301      	adds	r3, #1
87800a80:	607b      	str	r3, [r7, #4]
87800a82:	2300      	movs	r3, #0
87800a84:	603b      	str	r3, [r7, #0]
87800a86:	e00a      	b.n	87800a9e <int_Init+0x42>
87800a88:	68bb      	ldr	r3, [r7, #8]
87800a8a:	683a      	ldr	r2, [r7, #0]
87800a8c:	f502 628c 	add.w	r2, r2, #1120	; 0x460
87800a90:	f04f 31ff 	mov.w	r1, #4294967295	; 0xffffffff
87800a94:	f843 1022 	str.w	r1, [r3, r2, lsl #2]
87800a98:	683b      	ldr	r3, [r7, #0]
87800a9a:	3301      	adds	r3, #1
87800a9c:	603b      	str	r3, [r7, #0]
87800a9e:	687a      	ldr	r2, [r7, #4]
87800aa0:	683b      	ldr	r3, [r7, #0]
87800aa2:	429a      	cmp	r2, r3
87800aa4:	d8f0      	bhi.n	87800a88 <int_Init+0x2c>
87800aa6:	68bb      	ldr	r3, [r7, #8]
87800aa8:	f503 5300 	add.w	r3, r3, #8192	; 0x2000
87800aac:	3304      	adds	r3, #4
87800aae:	22f8      	movs	r2, #248	; 0xf8
87800ab0:	601a      	str	r2, [r3, #0]
87800ab2:	68bb      	ldr	r3, [r7, #8]
87800ab4:	f503 5300 	add.w	r3, r3, #8192	; 0x2000
87800ab8:	3308      	adds	r3, #8
87800aba:	2202      	movs	r2, #2
87800abc:	601a      	str	r2, [r3, #0]
87800abe:	68bb      	ldr	r3, [r7, #8]
87800ac0:	f503 5380 	add.w	r3, r3, #4096	; 0x1000
87800ac4:	2201      	movs	r2, #1
87800ac6:	601a      	str	r2, [r3, #0]
87800ac8:	68bb      	ldr	r3, [r7, #8]
87800aca:	f503 5300 	add.w	r3, r3, #8192	; 0x2000
87800ace:	2201      	movs	r2, #1
87800ad0:	601a      	str	r2, [r3, #0]
87800ad2:	f7ff ff7f 	bl	878009d4 <system_irqtable_init>
87800ad6:	3710      	adds	r7, #16
87800ad8:	46bd      	mov	sp, r7
87800ada:	bd80      	pop	{r7, pc}

87800adc <system_irqhandler>:
87800adc:	b590      	push	{r4, r7, lr}
87800ade:	b085      	sub	sp, #20
87800ae0:	af00      	add	r7, sp, #0
87800ae2:	6078      	str	r0, [r7, #4]
87800ae4:	687b      	ldr	r3, [r7, #4]
87800ae6:	f3c3 0309 	ubfx	r3, r3, #0, #10
87800aea:	60fb      	str	r3, [r7, #12]
87800aec:	68fb      	ldr	r3, [r7, #12]
87800aee:	2b9f      	cmp	r3, #159	; 0x9f
87800af0:	d900      	bls.n	87800af4 <system_irqhandler+0x18>
87800af2:	e027      	b.n	87800b44 <system_irqhandler+0x68>
87800af4:	f640 5344 	movw	r3, #3396	; 0xd44
87800af8:	f2c8 7380 	movt	r3, #34688	; 0x8780
87800afc:	681b      	ldr	r3, [r3, #0]
87800afe:	1c5a      	adds	r2, r3, #1
87800b00:	f640 5344 	movw	r3, #3396	; 0xd44
87800b04:	f2c8 7380 	movt	r3, #34688	; 0x8780
87800b08:	601a      	str	r2, [r3, #0]
87800b0a:	f640 5348 	movw	r3, #3400	; 0xd48
87800b0e:	f2c8 7380 	movt	r3, #34688	; 0x8780
87800b12:	68fa      	ldr	r2, [r7, #12]
87800b14:	f853 4032 	ldr.w	r4, [r3, r2, lsl #3]
87800b18:	f640 5248 	movw	r2, #3400	; 0xd48
87800b1c:	f2c8 7280 	movt	r2, #34688	; 0x8780
87800b20:	68fb      	ldr	r3, [r7, #12]
87800b22:	00db      	lsls	r3, r3, #3
87800b24:	4413      	add	r3, r2
87800b26:	685b      	ldr	r3, [r3, #4]
87800b28:	4619      	mov	r1, r3
87800b2a:	68f8      	ldr	r0, [r7, #12]
87800b2c:	47a0      	blx	r4
87800b2e:	f640 5344 	movw	r3, #3396	; 0xd44
87800b32:	f2c8 7380 	movt	r3, #34688	; 0x8780
87800b36:	681b      	ldr	r3, [r3, #0]
87800b38:	1e5a      	subs	r2, r3, #1
87800b3a:	f640 5344 	movw	r3, #3396	; 0xd44
87800b3e:	f2c8 7380 	movt	r3, #34688	; 0x8780
87800b42:	601a      	str	r2, [r3, #0]
87800b44:	3714      	adds	r7, #20
87800b46:	46bd      	mov	sp, r7
87800b48:	bd90      	pop	{r4, r7, pc}
87800b4a:	bf00      	nop

87800b4c <default_irqhandler>:
87800b4c:	b480      	push	{r7}
87800b4e:	b083      	sub	sp, #12
87800b50:	af00      	add	r7, sp, #0
87800b52:	6078      	str	r0, [r7, #4]
87800b54:	6039      	str	r1, [r7, #0]
87800b56:	e7fe      	b.n	87800b56 <default_irqhandler+0xa>

87800b58 <Key_Init>:
87800b58:	b580      	push	{r7, lr}
87800b5a:	b08c      	sub	sp, #48	; 0x30
87800b5c:	af02      	add	r7, sp, #8
87800b5e:	2300      	movs	r3, #0
87800b60:	607b      	str	r3, [r7, #4]
87800b62:	2301      	movs	r3, #1
87800b64:	60bb      	str	r3, [r7, #8]
87800b66:	2302      	movs	r3, #2
87800b68:	60fb      	str	r3, [r7, #12]
87800b6a:	2301      	movs	r3, #1
87800b6c:	613b      	str	r3, [r7, #16]
87800b6e:	2301      	movs	r3, #1
87800b70:	617b      	str	r3, [r7, #20]
87800b72:	2300      	movs	r3, #0
87800b74:	61bb      	str	r3, [r7, #24]
87800b76:	2300      	movs	r3, #0
87800b78:	61fb      	str	r3, [r7, #28]
87800b7a:	2300      	movs	r3, #0
87800b7c:	623b      	str	r3, [r7, #32]
87800b7e:	2300      	movs	r3, #0
87800b80:	627b      	str	r3, [r7, #36]	; 0x24
87800b82:	1d3b      	adds	r3, r7, #4
87800b84:	9301      	str	r3, [sp, #4]
87800b86:	f44f 7346 	mov.w	r3, #792	; 0x318
87800b8a:	f2c0 230e 	movt	r3, #526	; 0x20e
87800b8e:	9300      	str	r3, [sp, #0]
87800b90:	2300      	movs	r3, #0
87800b92:	2200      	movs	r2, #0
87800b94:	2105      	movs	r1, #5
87800b96:	208c      	movs	r0, #140	; 0x8c
87800b98:	f2c0 200e 	movt	r0, #526	; 0x20e
87800b9c:	f7ff fd9c 	bl	878006d8 <GPIO_Init>
87800ba0:	f44f 4340 	mov.w	r3, #49152	; 0xc000
87800ba4:	f2c0 2309 	movt	r3, #521	; 0x209
87800ba8:	f44f 4240 	mov.w	r2, #49152	; 0xc000
87800bac:	f2c0 2209 	movt	r2, #521	; 0x209
87800bb0:	6851      	ldr	r1, [r2, #4]
87800bb2:	f44f 2280 	mov.w	r2, #262144	; 0x40000
87800bb6:	43d2      	mvns	r2, r2
87800bb8:	400a      	ands	r2, r1
87800bba:	605a      	str	r2, [r3, #4]
87800bbc:	3728      	adds	r7, #40	; 0x28
87800bbe:	46bd      	mov	sp, r7
87800bc0:	bd80      	pop	{r7, pc}
87800bc2:	bf00      	nop

87800bc4 <GetKeyStatus>:
87800bc4:	b580      	push	{r7, lr}
87800bc6:	b082      	sub	sp, #8
87800bc8:	af00      	add	r7, sp, #0
87800bca:	f44f 4340 	mov.w	r3, #49152	; 0xc000
87800bce:	f2c0 2309 	movt	r3, #521	; 0x209
87800bd2:	689b      	ldr	r3, [r3, #8]
87800bd4:	f44f 2280 	mov.w	r2, #262144	; 0x40000
87800bd8:	4013      	ands	r3, r2
87800bda:	607b      	str	r3, [r7, #4]
87800bdc:	200a      	movs	r0, #10
87800bde:	f7ff fc47 	bl	87800470 <delay>
87800be2:	f44f 4340 	mov.w	r3, #49152	; 0xc000
87800be6:	f2c0 2309 	movt	r3, #521	; 0x209
87800bea:	689b      	ldr	r3, [r3, #8]
87800bec:	f44f 2280 	mov.w	r2, #262144	; 0x40000
87800bf0:	401a      	ands	r2, r3
87800bf2:	687b      	ldr	r3, [r7, #4]
87800bf4:	429a      	cmp	r2, r3
87800bf6:	d10b      	bne.n	87800c10 <GetKeyStatus+0x4c>
87800bf8:	687b      	ldr	r3, [r7, #4]
87800bfa:	2b00      	cmp	r3, #0
87800bfc:	bf0c      	ite	eq
87800bfe:	2301      	moveq	r3, #1
87800c00:	2300      	movne	r3, #0
87800c02:	b2db      	uxtb	r3, r3
87800c04:	461a      	mov	r2, r3
87800c06:	f241 2348 	movw	r3, #4680	; 0x1248
87800c0a:	f2c8 7380 	movt	r3, #34688	; 0x8780
87800c0e:	601a      	str	r2, [r3, #0]
87800c10:	f241 2348 	movw	r3, #4680	; 0x1248
87800c14:	f2c8 7380 	movt	r3, #34688	; 0x8780
87800c18:	681b      	ldr	r3, [r3, #0]
87800c1a:	4618      	mov	r0, r3
87800c1c:	3708      	adds	r7, #8
87800c1e:	46bd      	mov	sp, r7
87800c20:	bd80      	pop	{r7, pc}
87800c22:	bf00      	nop

87800c24 <led_init>:
87800c24:	b580      	push	{r7, lr}
87800c26:	b08c      	sub	sp, #48	; 0x30
87800c28:	af02      	add	r7, sp, #8
87800c2a:	2300      	movs	r3, #0
87800c2c:	607b      	str	r3, [r7, #4]
87800c2e:	2300      	movs	r3, #0
87800c30:	60bb      	str	r3, [r7, #8]
87800c32:	2302      	movs	r3, #2
87800c34:	60fb      	str	r3, [r7, #12]
87800c36:	2301      	movs	r3, #1
87800c38:	613b      	str	r3, [r7, #16]
87800c3a:	2301      	movs	r3, #1
87800c3c:	617b      	str	r3, [r7, #20]
87800c3e:	2300      	movs	r3, #0
87800c40:	61bb      	str	r3, [r7, #24]
87800c42:	2300      	movs	r3, #0
87800c44:	61fb      	str	r3, [r7, #28]
87800c46:	2300      	movs	r3, #0
87800c48:	623b      	str	r3, [r7, #32]
87800c4a:	2300      	movs	r3, #0
87800c4c:	627b      	str	r3, [r7, #36]	; 0x24
87800c4e:	1d3b      	adds	r3, r7, #4
87800c50:	9301      	str	r3, [sp, #4]
87800c52:	f44f 733b 	mov.w	r3, #748	; 0x2ec
87800c56:	f2c0 230e 	movt	r3, #526	; 0x20e
87800c5a:	9300      	str	r3, [sp, #0]
87800c5c:	2300      	movs	r3, #0
87800c5e:	2200      	movs	r2, #0
87800c60:	2105      	movs	r1, #5
87800c62:	2060      	movs	r0, #96	; 0x60
87800c64:	f2c0 200e 	movt	r0, #526	; 0x20e
87800c68:	f7ff fd36 	bl	878006d8 <GPIO_Init>
87800c6c:	f44f 4340 	mov.w	r3, #49152	; 0xc000
87800c70:	f2c0 2309 	movt	r3, #521	; 0x209
87800c74:	2208      	movs	r2, #8
87800c76:	605a      	str	r2, [r3, #4]
87800c78:	f44f 4340 	mov.w	r3, #49152	; 0xc000
87800c7c:	f2c0 2309 	movt	r3, #521	; 0x209
87800c80:	f44f 4240 	mov.w	r2, #49152	; 0xc000
87800c84:	f2c0 2209 	movt	r2, #521	; 0x209
87800c88:	6812      	ldr	r2, [r2, #0]
87800c8a:	f042 0208 	orr.w	r2, r2, #8
87800c8e:	601a      	str	r2, [r3, #0]
87800c90:	3728      	adds	r7, #40	; 0x28
87800c92:	46bd      	mov	sp, r7
87800c94:	bd80      	pop	{r7, pc}
87800c96:	bf00      	nop

87800c98 <led_on>:
87800c98:	b480      	push	{r7}
87800c9a:	af00      	add	r7, sp, #0
87800c9c:	f44f 4340 	mov.w	r3, #49152	; 0xc000
87800ca0:	f2c0 2309 	movt	r3, #521	; 0x209
87800ca4:	f44f 4240 	mov.w	r2, #49152	; 0xc000
87800ca8:	f2c0 2209 	movt	r2, #521	; 0x209
87800cac:	6812      	ldr	r2, [r2, #0]
87800cae:	f022 0208 	bic.w	r2, r2, #8
87800cb2:	601a      	str	r2, [r3, #0]
87800cb4:	46bd      	mov	sp, r7
87800cb6:	f85d 7b04 	ldr.w	r7, [sp], #4
87800cba:	4770      	bx	lr

87800cbc <led_off>:
87800cbc:	b480      	push	{r7}
87800cbe:	af00      	add	r7, sp, #0
87800cc0:	f44f 4340 	mov.w	r3, #49152	; 0xc000
87800cc4:	f2c0 2309 	movt	r3, #521	; 0x209
87800cc8:	f44f 4240 	mov.w	r2, #49152	; 0xc000
87800ccc:	f2c0 2209 	movt	r2, #521	; 0x209
87800cd0:	6812      	ldr	r2, [r2, #0]
87800cd2:	f042 0208 	orr.w	r2, r2, #8
87800cd6:	601a      	str	r2, [r3, #0]
87800cd8:	46bd      	mov	sp, r7
87800cda:	f85d 7b04 	ldr.w	r7, [sp], #4
87800cde:	4770      	bx	lr

87800ce0 <led_flip>:
87800ce0:	b480      	push	{r7}
87800ce2:	af00      	add	r7, sp, #0
87800ce4:	f44f 4340 	mov.w	r3, #49152	; 0xc000
87800ce8:	f2c0 2309 	movt	r3, #521	; 0x209
87800cec:	f44f 4240 	mov.w	r2, #49152	; 0xc000
87800cf0:	f2c0 2209 	movt	r2, #521	; 0x209
87800cf4:	6812      	ldr	r2, [r2, #0]
87800cf6:	f082 0208 	eor.w	r2, r2, #8
87800cfa:	601a      	str	r2, [r3, #0]
87800cfc:	46bd      	mov	sp, r7
87800cfe:	f85d 7b04 	ldr.w	r7, [sp], #4
87800d02:	4770      	bx	lr

87800d04 <init>:
87800d04:	b580      	push	{r7, lr}
87800d06:	af00      	add	r7, sp, #0
87800d08:	f7ff fa7c 	bl	87800204 <ARM_clk_init>
87800d0c:	f7ff fa42 	bl	87800194 <clk_enable>
87800d10:	f7ff fea4 	bl	87800a5c <int_Init>
87800d14:	f7ff ff86 	bl	87800c24 <led_init>
87800d18:	f7ff fc34 	bl	87800584 <EXTI_Init>
87800d1c:	f241 3188 	movw	r1, #5000	; 0x1388
87800d20:	2041      	movs	r0, #65	; 0x41
87800d22:	f7ff fbb7 	bl	87800494 <EPIT_Init>
87800d26:	f7ff ff17 	bl	87800b58 <Key_Init>
87800d2a:	bd80      	pop	{r7, pc}

87800d2c <main>:
87800d2c:	b580      	push	{r7, lr}
87800d2e:	af00      	add	r7, sp, #0
87800d30:	f7ff ffe8 	bl	87800d04 <init>
87800d34:	e7fe      	b.n	87800d34 <main+0x8>
87800d36:	bf00      	nop

87800d38 <__main_from_arm>:
87800d38:	e51ff004 	ldr	pc, [pc, #-4]	; 87800d3c <__main_from_arm+0x4>
87800d3c:	87800d2d 	strhi	r0, [r0, sp, lsr #26]

Disassembly of section .rodata:

87800d40 <key>:
87800d40:	00040000 	andeq	r0, r4, r0

Disassembly of section .bss:

87800d44 <irqNesting>:
87800d44:	00000000 	andeq	r0, r0, r0

87800d48 <irqTable>:
	...

87801248 <keyStatus_Buf>:
87801248:	00000000 	andeq	r0, r0, r0

Disassembly of section .comment:

00000000 <.comment>:
   0:	3a434347 	bcc	10d0d24 <_start-0x8672f2dc>
   4:	694c2820 	stmdbvs	ip, {r5, fp, sp}^
   8:	6f72616e 	svcvs	0x0072616e
   c:	43434720 	movtmi	r4, #14112	; 0x3720
  10:	392e3420 	stmdbcc	lr!, {r5, sl, ip, sp}
  14:	3130322d 	teqcc	r0, sp, lsr #4
  18:	31302e37 	teqcc	r0, r7, lsr lr
  1c:	2e342029 	cdpcs	0, 3, cr2, cr4, cr9, {1}
  20:	00342e39 	eorseq	r2, r4, r9, lsr lr

Disassembly of section .ARM.attributes:

00000000 <.ARM.attributes>:
   0:	00003041 	andeq	r3, r0, r1, asr #32
   4:	61656100 	cmnvs	r5, r0, lsl #2
   8:	01006962 	tsteq	r0, r2, ror #18
   c:	00000026 	andeq	r0, r0, r6, lsr #32
  10:	412d3705 	teqmi	sp, r5, lsl #14
  14:	070a0600 	streq	r0, [sl, -r0, lsl #12]
  18:	09010841 	stmdbeq	r1, {r0, r6, fp}
  1c:	12040a02 	andne	r0, r4, #8192	; 0x2000
  20:	15011404 	strne	r1, [r1, #-1028]	; 0x404
  24:	18031701 	stmdane	r3, {r0, r8, r9, sl, ip}
  28:	1b021a01 	blne	86834 <_start-0x877797cc>
  2c:	22011c03 	andcs	r1, r1, #768	; 0x300
  30:	地址 0x0000000000000030 越界。

